; Function Attrs: mustprogress nofree norecurse nosync nounwind willreturn memory(argmem: write) uwtable
define void @_ZN7rocksdb26OptimizeForPersistentStatsEPNS_19ColumnFamilyOptionsE(ptr noundef writeonly captures(none) initializes((152, 160), (208, 224), (576, 585), (728, 736)) %0) local_unnamed_addr #9 {
  %2 = getelementptr inbounds nuw i8, ptr %0, i64 576
  store i64 2097152, ptr %2, align 8, !tbaa !83
  %3 = getelementptr inbounds nuw i8, ptr %0, i64 152
  store i64 2097152, ptr %3, align 8, !tbaa !149
  %4 = getelementptr inbounds nuw i8, ptr %0, i64 728
  store i64 10485760, ptr %4, align 8, !tbaa !150
  %5 = getelementptr inbounds nuw i8, ptr %0, i64 208
  store i64 268435456, ptr %5, align 8, !tbaa !151
  %6 = getelementptr inbounds nuw i8, ptr %0, i64 216
  store i64 1073741824, ptr %6, align 8, !tbaa !152
  %7 = getelementptr inbounds nuw i8, ptr %0, i64 584
  store i8 0, ptr %7, align 8, !tbaa !153
  ret void
}